target datalayout = "e-m:e-p270:32:32-p271:32:32-p272:64:64-i64:64-i128:128-f80:128-n8:16:32:64-S128"
target triple = "x86_64-pc-linux-gnu"

%struct.stats_state = type { i64, i64, i64, i64, float, i32, i32, i32, i32, i8, i8, i8, i8 }
%union.pthread_mutex_t = type { %struct.__pthread_mutex_s }
%struct.__pthread_mutex_s = type { i32, i32, i32, i32, i32, i16, i16, %struct.__pthread_internal_list }
%struct.__pthread_internal_list = type { ptr, ptr }
%union.pthread_cond_t = type { %struct.__pthread_cond_s }
%struct.__pthread_cond_s = type { %union.__atomic_wide_counter, %union.__atomic_wide_counter, [2 x i32], [2 x i32], i32, i32, [2 x i32] }
%union.__atomic_wide_counter = type { i64 }
%struct.settings = type { i64, i32, i32, i32, ptr, i32, i32, i32, ptr, ptr, i32, double, i32, i32, i32, i8, i32, i32, i8, i32, i32, i32, i32, i32, i32, i8, i8, i8, i8, i8, i8, i8, i32, i32, double, double, i32, i32, i8, i32, i8, i8, ptr, i32, i32, i32, i32, double, double, i32, i8, i32, i32, i32, i32, i32, i8, i8, i8, ptr, i32, i32, i32, i32, i32, i32, i32, i32, i32, i32, double, i8, i32, i32, ptr, i32 }
%struct._stritem = type { ptr, ptr, ptr, i32, i32, i32, i16, i16, i8, i8, [0 x %union.anon] }
%union.anon = type { i64 }

@hashpower = dso_local global i32 16, align 4
@primary_hashtable = internal global ptr null, align 8
@stderr = external global ptr, align 8
@stats_state = external global %struct.stats_state, align 8
@expanding = internal global i8 0, align 1
@expand_bucket = internal global i64 0, align 8
@old_hashtable = internal global ptr null, align 8
@maintenance_lock = internal global %union.pthread_mutex_t zeroinitializer, align 8
@maintenance_cond = internal global %union.pthread_cond_t zeroinitializer, align 8
@hash_bulk_move = dso_local global i32 1, align 4
@do_run_maintenance_thread = internal global i32 1, align 4
@hash = external global ptr, align 8
@settings = external global %struct.settings, align 8
@.str.4 = private unnamed_addr constant [27 x i8] c"Hash table expansion done\0A\00", align 1
@.str.5 = private unnamed_addr constant [31 x i8] c"Hash table expansion starting\0A\00", align 1

; Function Attrs: nounwind uwtable
define internal void @assoc_expand() #0 {
  %1 = load ptr, ptr @primary_hashtable, align 8, !tbaa !8
  store ptr %1, ptr @old_hashtable, align 8, !tbaa !8
  %2 = load i32, ptr @hashpower, align 4, !tbaa !4
  %3 = add i32 %2, 1
  %4 = zext i32 %3 to i64
  %5 = shl i64 1, %4
  %6 = call noalias ptr @calloc(i64 noundef %5, i64 noundef 8) #8
  store ptr %6, ptr @primary_hashtable, align 8, !tbaa !8
  %7 = load ptr, ptr @primary_hashtable, align 8, !tbaa !8
  %8 = icmp ne ptr %7, null
  br i1 %8, label %9, label %25

9:                                                ; preds = %0
  %10 = load i32, ptr getelementptr inbounds nuw (%struct.settings, ptr @settings, i32 0, i32 5), align 8, !tbaa !36
  %11 = icmp sgt i32 %10, 1
  br i1 %11, label %12, label %15

12:                                               ; preds = %9
  %13 = load ptr, ptr @stderr, align 8, !tbaa !11
  %14 = call i32 (ptr, ptr, ...) @fprintf(ptr noundef %13, ptr noundef @.str.5) #9
  br label %15

15:                                               ; preds = %12, %9
  %16 = load i32, ptr @hashpower, align 4, !tbaa !4
  %17 = add i32 %16, 1
  store i32 %17, ptr @hashpower, align 4, !tbaa !4
  store i8 1, ptr @expanding, align 1, !tbaa !22
  store i64 0, ptr @expand_bucket, align 8, !tbaa !21
  call void @STATS_LOCK()
  %18 = load i32, ptr @hashpower, align 4, !tbaa !4
  store i32 %18, ptr getelementptr inbounds nuw (%struct.stats_state, ptr @stats_state, i32 0, i32 7), align 4, !tbaa !13
  %19 = load i32, ptr @hashpower, align 4, !tbaa !4
  %20 = zext i32 %19 to i64
  %21 = shl i64 1, %20
  %22 = mul i64 %21, 8
  %23 = load i64, ptr getelementptr inbounds nuw (%struct.stats_state, ptr @stats_state, i32 0, i32 3), align 8, !tbaa !18
  %24 = add i64 %23, %22
  store i64 %24, ptr getelementptr inbounds nuw (%struct.stats_state, ptr @stats_state, i32 0, i32 3), align 8, !tbaa !18
  store i8 1, ptr getelementptr inbounds nuw (%struct.stats_state, ptr @stats_state, i32 0, i32 9), align 4, !tbaa !35
  call void @STATS_UNLOCK()
  br label %27

25:                                               ; preds = %0
  %26 = load ptr, ptr @old_hashtable, align 8, !tbaa !8
  store ptr %26, ptr @primary_hashtable, align 8, !tbaa !8
  br label %27

27:                                               ; preds = %25, %15
  ret void
}

; Function Attrs: nounwind uwtable
define internal ptr @assoc_maintenance_thread(ptr noundef %0) #0 {
  %2 = alloca ptr, align 8
  %3 = alloca i32, align 4
  %4 = alloca ptr, align 8
  %5 = alloca ptr, align 8
  %6 = alloca i64, align 8
  %7 = alloca ptr, align 8
  store ptr %0, ptr %2, align 8, !tbaa !33
  %8 = call i32 @pthread_mutex_lock(ptr noundef @maintenance_lock) #9
  br label %9

9:                                                ; preds = %121, %1
  %10 = load volatile i32, ptr @do_run_maintenance_thread, align 4, !tbaa !4
  %11 = icmp ne i32 %10, 0
  br i1 %11, label %12, label %122

12:                                               ; preds = %9
  call void @llvm.lifetime.start.p0(i64 4, ptr %3) #9
  store i32 0, ptr %3, align 4, !tbaa !4
  store i32 0, ptr %3, align 4, !tbaa !4
  br label %13

13:                                               ; preds = %109, %12
  %14 = load i32, ptr %3, align 4, !tbaa !4
  %15 = load i32, ptr @hash_bulk_move, align 4, !tbaa !4
  %16 = icmp slt i32 %14, %15
  br i1 %16, label %17, label %20

17:                                               ; preds = %13
  %18 = load i8, ptr @expanding, align 1, !tbaa !22, !range !23, !noundef !24
  %19 = trunc i8 %18 to i1
  br label %20

20:                                               ; preds = %17, %13
  %21 = phi i1 [ false, %13 ], [ %19, %17 ]
  br i1 %21, label %22, label %112

22:                                               ; preds = %20
  call void @llvm.lifetime.start.p0(i64 8, ptr %4) #9
  call void @llvm.lifetime.start.p0(i64 8, ptr %5) #9
  call void @llvm.lifetime.start.p0(i64 8, ptr %6) #9
  call void @llvm.lifetime.start.p0(i64 8, ptr %7) #9
  store ptr null, ptr %7, align 8, !tbaa !33
  %23 = load i64, ptr @expand_bucket, align 8, !tbaa !21
  %24 = trunc i64 %23 to i32
  %25 = call ptr @item_trylock(i32 noundef %24)
  store ptr %25, ptr %7, align 8, !tbaa !33
  %26 = icmp ne ptr %25, null
  br i1 %26, label %27, label %101

27:                                               ; preds = %22
  %28 = load ptr, ptr @old_hashtable, align 8, !tbaa !8
  %29 = load i64, ptr @expand_bucket, align 8, !tbaa !21
  %30 = getelementptr inbounds nuw ptr, ptr %28, i64 %29
  %31 = load ptr, ptr %30, align 8, !tbaa !25
  store ptr %31, ptr %4, align 8, !tbaa !25
  br label %32

32:                                               ; preds = %71, %27
  %33 = load ptr, ptr %4, align 8, !tbaa !25
  %34 = icmp ne ptr null, %33
  br i1 %34, label %35, label %73

35:                                               ; preds = %32
  %36 = load ptr, ptr %4, align 8, !tbaa !25
  %37 = getelementptr inbounds nuw %struct._stritem, ptr %36, i32 0, i32 2
  %38 = load ptr, ptr %37, align 8, !tbaa !25
  store ptr %38, ptr %5, align 8, !tbaa !25
  %39 = load ptr, ptr @hash, align 8, !tbaa !33
  %40 = load ptr, ptr %4, align 8, !tbaa !25
  %41 = getelementptr inbounds nuw %struct._stritem, ptr %40, i32 0, i32 10
  %42 = load ptr, ptr %4, align 8, !tbaa !25
  %43 = getelementptr inbounds nuw %struct._stritem, ptr %42, i32 0, i32 7
  %44 = load i16, ptr %43, align 2, !tbaa !28
  %45 = zext i16 %44 to i32
  %46 = and i32 %45, 2
  %47 = icmp ne i32 %46, 0
  %48 = select i1 %47, i64 8, i64 0
  %49 = getelementptr inbounds nuw i8, ptr %41, i64 %48
  %50 = load ptr, ptr %4, align 8, !tbaa !25
  %51 = getelementptr inbounds nuw %struct._stritem, ptr %50, i32 0, i32 9
  %52 = load i8, ptr %51, align 1, !tbaa !27
  %53 = zext i8 %52 to i64
  %54 = call i32 %39(ptr noundef %49, i64 noundef %53)
  %55 = zext i32 %54 to i64
  %56 = load i32, ptr @hashpower, align 4, !tbaa !4
  %57 = zext i32 %56 to i64
  %58 = shl i64 1, %57
  %59 = sub i64 %58, 1
  %60 = and i64 %55, %59
  store i64 %60, ptr %6, align 8, !tbaa !21
  %61 = load ptr, ptr @primary_hashtable, align 8, !tbaa !8
  %62 = load i64, ptr %6, align 8, !tbaa !21
  %63 = getelementptr inbounds nuw ptr, ptr %61, i64 %62
  %64 = load ptr, ptr %63, align 8, !tbaa !25
  %65 = load ptr, ptr %4, align 8, !tbaa !25
  %66 = getelementptr inbounds nuw %struct._stritem, ptr %65, i32 0, i32 2
  store ptr %64, ptr %66, align 8, !tbaa !25
  %67 = load ptr, ptr %4, align 8, !tbaa !25
  %68 = load ptr, ptr @primary_hashtable, align 8, !tbaa !8
  %69 = load i64, ptr %6, align 8, !tbaa !21
  %70 = getelementptr inbounds nuw ptr, ptr %68, i64 %69
  store ptr %67, ptr %70, align 8, !tbaa !25
  br label %71

71:                                               ; preds = %35
  %72 = load ptr, ptr %5, align 8, !tbaa !25
  store ptr %72, ptr %4, align 8, !tbaa !25
  br label %32, !llvm.loop !34

73:                                               ; preds = %32
  %74 = load ptr, ptr @old_hashtable, align 8, !tbaa !8
  %75 = load i64, ptr @expand_bucket, align 8, !tbaa !21
  %76 = getelementptr inbounds nuw ptr, ptr %74, i64 %75
  store ptr null, ptr %76, align 8, !tbaa !25
  %77 = load i64, ptr @expand_bucket, align 8, !tbaa !21
  %78 = add i64 %77, 1
  store i64 %78, ptr @expand_bucket, align 8, !tbaa !21
  %79 = load i64, ptr @expand_bucket, align 8, !tbaa !21
  %80 = load i32, ptr @hashpower, align 4, !tbaa !4
  %81 = sub i32 %80, 1
  %82 = zext i32 %81 to i64
  %83 = shl i64 1, %82
  %84 = icmp eq i64 %79, %83
  br i1 %84, label %85, label %100

85:                                               ; preds = %73
  store i8 0, ptr @expanding, align 1, !tbaa !22
  %86 = load ptr, ptr @old_hashtable, align 8, !tbaa !8
  call void @free(ptr noundef %86) #9
  call void @STATS_LOCK()
  %87 = load i32, ptr @hashpower, align 4, !tbaa !4
  %88 = sub i32 %87, 1
  %89 = zext i32 %88 to i64
  %90 = shl i64 1, %89
  %91 = mul i64 %90, 8
  %92 = load i64, ptr getelementptr inbounds nuw (%struct.stats_state, ptr @stats_state, i32 0, i32 3), align 8, !tbaa !18
  %93 = sub i64 %92, %91
  store i64 %93, ptr getelementptr inbounds nuw (%struct.stats_state, ptr @stats_state, i32 0, i32 3), align 8, !tbaa !18
  store i8 0, ptr getelementptr inbounds nuw (%struct.stats_state, ptr @stats_state, i32 0, i32 9), align 4, !tbaa !35
  call void @STATS_UNLOCK()
  %94 = load i32, ptr getelementptr inbounds nuw (%struct.settings, ptr @settings, i32 0, i32 5), align 8, !tbaa !36
  %95 = icmp sgt i32 %94, 1
  br i1 %95, label %96, label %99

96:                                               ; preds = %85
  %97 = load ptr, ptr @stderr, align 8, !tbaa !11
  %98 = call i32 (ptr, ptr, ...) @fprintf(ptr noundef %97, ptr noundef @.str.4) #9
  br label %99

99:                                               ; preds = %96, %85
  br label %100

100:                                              ; preds = %99, %73
  br label %103

101:                                              ; preds = %22
  %102 = call i32 @usleep(i32 noundef 9999)
  br label %103

103:                                              ; preds = %101, %100
  %104 = load ptr, ptr %7, align 8, !tbaa !33
  %105 = icmp ne ptr %104, null
  br i1 %105, label %106, label %108

106:                                              ; preds = %103
  %107 = load ptr, ptr %7, align 8, !tbaa !33
  call void @item_trylock_unlock(ptr noundef %107)
  store ptr null, ptr %7, align 8, !tbaa !33
  br label %108

108:                                              ; preds = %106, %103
  call void @llvm.lifetime.end.p0(i64 8, ptr %7) #9
  call void @llvm.lifetime.end.p0(i64 8, ptr %6) #9
  call void @llvm.lifetime.end.p0(i64 8, ptr %5) #9
  call void @llvm.lifetime.end.p0(i64 8, ptr %4) #9
  br label %109

109:                                              ; preds = %108
  %110 = load i32, ptr %3, align 4, !tbaa !4
  %111 = add nsw i32 %110, 1
  store i32 %111, ptr %3, align 4, !tbaa !4
  br label %13, !llvm.loop !40

112:                                              ; preds = %20
  %113 = load i8, ptr @expanding, align 1, !tbaa !22, !range !23, !noundef !24
  %114 = trunc i8 %113 to i1
  br i1 %114, label %121, label %115

115:                                              ; preds = %112
  %116 = call i32 @pthread_cond_wait(ptr noundef @maintenance_cond, ptr noundef @maintenance_lock)
  %117 = load volatile i32, ptr @do_run_maintenance_thread, align 4, !tbaa !4
  %118 = icmp ne i32 %117, 0
  br i1 %118, label %119, label %120

119:                                              ; preds = %115
  call void @pause_threads(i32 noundef 1)
  call void @assoc_expand()
  call void @pause_threads(i32 noundef 2)
  br label %120

120:                                              ; preds = %119, %115
  br label %121

121:                                              ; preds = %120, %112
  call void @llvm.lifetime.end.p0(i64 4, ptr %3) #9
  br label %9, !llvm.loop !41

122:                                              ; preds = %9
  %123 = call i32 @pthread_mutex_unlock(ptr noundef @maintenance_lock) #9
  ret ptr null
}