; Function Attrs: nounwind uwtable
define internal noundef ptr @assoc_maintenance_thread(ptr readnone captures(none) %0) #0 {
  %2 = tail call i32 @pthread_mutex_lock(ptr noundef nonnull @maintenance_lock) #18
  %3 = load volatile i32, ptr @do_run_maintenance_thread, align 4, !tbaa !4
  %.not26 = icmp eq i32 %3, 0
  br i1 %.not26, label %._crit_edge27, label %.preheader

.preheader:                                       ; preds = %1, %87
  %4 = load i32, ptr @hash_bulk_move, align 4, !tbaa !4
  %5 = icmp sgt i32 %4, 0
  %.b1522 = load i1, ptr @expanding, align 1
  %6 = select i1 %5, i1 %.b1522, i1 false
  br i1 %6, label %.lr.ph24, label %._crit_edge25

.lr.ph24:                                         ; preds = %.preheader, %59
  %.023 = phi i32 [ %60, %59 ], [ 0, %.preheader ]
  %7 = load i64, ptr @expand_bucket, align 8, !tbaa !19
  %8 = trunc i64 %7 to i32
  %9 = tail call ptr @item_trylock(i32 noundef %8) #18
  %.not17 = icmp eq ptr %9, null
  br i1 %.not17, label %.thread, label %10

10:                                               ; preds = %.lr.ph24
  %11 = load ptr, ptr @old_hashtable, align 8, !tbaa !8
  %12 = load i64, ptr @expand_bucket, align 8, !tbaa !19
  %13 = getelementptr inbounds nuw ptr, ptr %11, i64 %12
  %14 = load ptr, ptr %13, align 8, !tbaa !20
  %.not1820 = icmp eq ptr %14, null
  br i1 %.not1820, label %.._crit_edge_crit_edge, label %.lr.ph

.._crit_edge_crit_edge:                           ; preds = %10
  %.pre30 = load i32, ptr @hashpower, align 4, !tbaa !4
  br label %._crit_edge

.lr.ph:                                           ; preds = %10, %.lr.ph
  %.01321 = phi ptr [ %16, %.lr.ph ], [ %14, %10 ]
  %15 = getelementptr inbounds nuw i8, ptr %.01321, i64 16
  %16 = load ptr, ptr %15, align 8, !tbaa !20
  %17 = load ptr, ptr @hash, align 8, !tbaa !28
  %18 = getelementptr inbounds nuw i8, ptr %.01321, i64 48
  %19 = getelementptr inbounds nuw i8, ptr %.01321, i64 38
  %20 = load i16, ptr %19, align 2, !tbaa !23
  %21 = shl i16 %20, 2
  %22 = and i16 %21, 8
  %23 = zext nneg i16 %22 to i64
  %24 = getelementptr inbounds nuw i8, ptr %18, i64 %23
  %25 = getelementptr inbounds nuw i8, ptr %.01321, i64 41
  %26 = load i8, ptr %25, align 1, !tbaa !22
  %27 = zext i8 %26 to i64
  %28 = tail call i32 %17(ptr noundef nonnull %24, i64 noundef %27) #18
  %29 = zext i32 %28 to i64
  %30 = load i32, ptr @hashpower, align 4, !tbaa !4
  %31 = zext nneg i32 %30 to i64
  %notmask = shl nsw i64 -1, %31
  %32 = xor i64 %notmask, -1
  %33 = and i64 %32, %29
  %34 = load ptr, ptr @primary_hashtable, align 8, !tbaa !8
  %35 = getelementptr inbounds nuw ptr, ptr %34, i64 %33
  %36 = load ptr, ptr %35, align 8, !tbaa !20
  store ptr %36, ptr %15, align 8, !tbaa !20
  store ptr %.01321, ptr %35, align 8, !tbaa !20
  %.not18 = icmp eq ptr %16, null
  br i1 %.not18, label %._crit_edge.loopexit, label %.lr.ph, !llvm.loop !29

._crit_edge.loopexit:                             ; preds = %.lr.ph
  %.pre = load ptr, ptr @old_hashtable, align 8, !tbaa !8
  %.pre29 = load i64, ptr @expand_bucket, align 8, !tbaa !19
  br label %._crit_edge

._crit_edge:                                      ; preds = %.._crit_edge_crit_edge, %._crit_edge.loopexit
  %37 = phi i32 [ %30, %._crit_edge.loopexit ], [ %.pre30, %.._crit_edge_crit_edge ]
  %38 = phi i64 [ %.pre29, %._crit_edge.loopexit ], [ %12, %.._crit_edge_crit_edge ]
  %39 = phi ptr [ %.pre, %._crit_edge.loopexit ], [ %11, %.._crit_edge_crit_edge ]
  %40 = getelementptr inbounds nuw ptr, ptr %39, i64 %38
  store ptr null, ptr %40, align 8, !tbaa !20
  %41 = add i64 %38, 1
  store i64 %41, ptr @expand_bucket, align 8, !tbaa !19
  %42 = add i32 %37, -1
  %43 = zext nneg i32 %42 to i64
  %44 = shl nuw i64 1, %43
  %45 = icmp eq i64 %41, %44
  br i1 %45, label %46, label %58

46:                                               ; preds = %._crit_edge
  store i1 false, ptr @expanding, align 1
  tail call void @free(ptr noundef nonnull %39) #18
  tail call void @STATS_LOCK() #18
  %47 = load i32, ptr @hashpower, align 4, !tbaa !4
  %48 = add i32 %47, -1
  %49 = zext nneg i32 %48 to i64
  %.neg = shl i64 -8, %49
  %50 = load i64, ptr getelementptr inbounds nuw (i8, ptr @stats_state, i64 24), align 8, !tbaa !18
  %51 = add i64 %.neg, %50
  store i64 %51, ptr getelementptr inbounds nuw (i8, ptr @stats_state, i64 24), align 8, !tbaa !18
  store i8 0, ptr getelementptr inbounds nuw (i8, ptr @stats_state, i64 52), align 4, !tbaa !30
  tail call void @STATS_UNLOCK() #18
  %52 = load i32, ptr getelementptr inbounds nuw (i8, ptr @settings, i64 32), align 8, !tbaa !31
  %53 = icmp sgt i32 %52, 1
  br i1 %53, label %54, label %58

54:                                               ; preds = %46
  %55 = load ptr, ptr @stderr, align 8, !tbaa !11
  %56 = tail call i64 @fwrite(ptr nonnull @.str.4, i64 26, i64 1, ptr %55) #16
  br label %58

.thread:                                          ; preds = %.lr.ph24
  %57 = tail call i32 @usleep(i32 noundef 9999) #18
  br label %59

58:                                               ; preds = %46, %54, %._crit_edge
  tail call void @item_trylock_unlock(ptr noundef nonnull %9) #18
  br label %59

59:                                               ; preds = %.thread, %58
  %60 = add nuw nsw i32 %.023, 1
  %61 = load i32, ptr @hash_bulk_move, align 4, !tbaa !4
  %62 = icmp slt i32 %60, %61
  %.b15 = load i1, ptr @expanding, align 1
  %63 = select i1 %62, i1 %.b15, i1 false
  br i1 %63, label %.lr.ph24, label %._crit_edge25, !llvm.loop !36

._crit_edge25:                                    ; preds = %59, %.preheader
  %.b15.lcssa = phi i1 [ %.b1522, %.preheader ], [ %.b15, %59 ]
  br i1 %.b15.lcssa, label %87, label %64

64:                                               ; preds = %._crit_edge25
  %65 = tail call i32 @pthread_cond_wait(ptr noundef nonnull @maintenance_cond, ptr noundef nonnull @maintenance_lock) #18
  %66 = load volatile i32, ptr @do_run_maintenance_thread, align 4, !tbaa !4
  %.not16 = icmp eq i32 %66, 0
  br i1 %.not16, label %87, label %67

67:                                               ; preds = %64
  tail call void @pause_threads(i32 noundef 1) #18
  %68 = load ptr, ptr @primary_hashtable, align 8, !tbaa !8
  store ptr %68, ptr @old_hashtable, align 8, !tbaa !8
  %69 = load i32, ptr @hashpower, align 4, !tbaa !4
  %70 = add i32 %69, 1
  %71 = zext nneg i32 %70 to i64
  %72 = shl nuw i64 1, %71
  %73 = tail call noalias ptr @calloc(i64 noundef %72, i64 noundef 8) #15
  store ptr %73, ptr @primary_hashtable, align 8, !tbaa !8
  %.not.i = icmp eq ptr %73, null
  br i1 %.not.i, label %86, label %74

74:                                               ; preds = %67
  %75 = load i32, ptr getelementptr inbounds nuw (i8, ptr @settings, i64 32), align 8, !tbaa !31
  %76 = icmp sgt i32 %75, 1
  br i1 %76, label %77, label %80

77:                                               ; preds = %74
  %78 = load ptr, ptr @stderr, align 8, !tbaa !11
  %79 = tail call i64 @fwrite(ptr nonnull @.str.5, i64 30, i64 1, ptr %78) #16
  %.pre.i = load i32, ptr @hashpower, align 4, !tbaa !4
  %.pre1.i = add i32 %.pre.i, 1
  br label %80

80:                                               ; preds = %77, %74
  %.pre-phi.i = phi i32 [ %.pre1.i, %77 ], [ %70, %74 ]
  store i32 %.pre-phi.i, ptr @hashpower, align 4, !tbaa !4
  store i1 true, ptr @expanding, align 1
  store i64 0, ptr @expand_bucket, align 8, !tbaa !19
  tail call void @STATS_LOCK() #18
  %81 = load i32, ptr @hashpower, align 4, !tbaa !4
  store i32 %81, ptr getelementptr inbounds nuw (i8, ptr @stats_state, i64 44), align 4, !tbaa !13
  %82 = zext nneg i32 %81 to i64
  %83 = shl i64 8, %82
  %84 = load i64, ptr getelementptr inbounds nuw (i8, ptr @stats_state, i64 24), align 8, !tbaa !18
  %85 = add i64 %84, %83
  store i64 %85, ptr getelementptr inbounds nuw (i8, ptr @stats_state, i64 24), align 8, !tbaa !18
  store i8 1, ptr getelementptr inbounds nuw (i8, ptr @stats_state, i64 52), align 4, !tbaa !30
  tail call void @STATS_UNLOCK() #18
  br label %assoc_expand.exit

86:                                               ; preds = %67
  store ptr %68, ptr @primary_hashtable, align 8, !tbaa !8
  br label %assoc_expand.exit

assoc_expand.exit:                                ; preds = %80, %86
  tail call void @pause_threads(i32 noundef 2) #18
  br label %87

87:                                               ; preds = %64, %assoc_expand.exit, %._crit_edge25
  %88 = load volatile i32, ptr @do_run_maintenance_thread, align 4, !tbaa !4
  %.not = icmp eq i32 %88, 0
  br i1 %.not, label %._crit_edge27, label %.preheader, !llvm.loop !37

._crit_edge27:                                    ; preds = %87, %1
  %89 = tail call i32 @pthread_mutex_unlock(ptr noundef nonnull @maintenance_lock) #18
  ret ptr null
}